	.text
	.file	"test2-kec.cpp"
	.file	1 "/home/ethanf/A/pro/HPC" "test2-kec.cpp"
	.file	2 "/usr/bin/../lib64/gcc/x86_64-pc-linux-gnu/10.2.0/../../../../include/c++/10.2.0/x86_64-pc-linux-gnu/bits" "c++config.h"
	.file	3 "/usr/include" "stdlib.h"
	.file	4 "/usr/bin/../lib64/gcc/x86_64-pc-linux-gnu/10.2.0/../../../../include/c++/10.2.0/bits" "std_abs.h"
	.file	5 "/usr/bin/../lib64/gcc/x86_64-pc-linux-gnu/10.2.0/../../../../include/c++/10.2.0" "cstdlib"
	.file	6 "/usr/include/bits" "stdlib-float.h"
	.file	7 "/usr/include/bits" "stdlib-bsearch.h"
	.file	8 "/usr/lib/clang/11.0.0/include" "stddef.h"
	.file	9 "/usr/bin/../lib64/gcc/x86_64-pc-linux-gnu/10.2.0/../../../../include/c++/10.2.0" "stdlib.h"
	.section	.rodata.cst8,"aM",@progbits,8
	.p2align	3                               # -- Begin function main
.LCPI0_0:
	.quad	0x4008000000000000              # double 3
.LCPI0_1:
	.quad	0xbff0000000000000              # double -1
	.section	.rodata.cst4,"aM",@progbits,4
	.p2align	2
.LCPI0_2:
	.long	0x4e6e6b28                      # float 1.0E+9
	.text
	.globl	main
	.p2align	4, 0x90
	.type	main,@function
main:                                   # @main
.Lfunc_begin0:
	.loc	1 29 0                          # test2-kec.cpp:29:0
	.cfi_startproc
	.cfi_personality 155, DW.ref.__gxx_personality_v0
	.cfi_lsda 27, .Lexception0
# %bb.0:
	pushq	%rbp
	.cfi_def_cfa_offset 16
	pushq	%r15
	.cfi_def_cfa_offset 24
	pushq	%r14
	.cfi_def_cfa_offset 32
	pushq	%r13
	.cfi_def_cfa_offset 40
	pushq	%r12
	.cfi_def_cfa_offset 48
	pushq	%rbx
	.cfi_def_cfa_offset 56
	subq	$56, %rsp
	.cfi_def_cfa_offset 112
	.cfi_offset %rbx, -56
	.cfi_offset %r12, -48
	.cfi_offset %r13, -40
	.cfi_offset %r14, -32
	.cfi_offset %r15, -24
	.cfi_offset %rbp, -16
	movq	%fs:40, %rax
	movq	%rax, 48(%rsp)
	xorl	%r13d, %r13d
.Ltmp9:
	#DEBUG_VALUE: i <- 0
	leaq	_ZZ4mainE1a(%rip), %r14
	leaq	_ZZ4mainE1b(%rip), %r15
	leaq	_ZZ4mainE1c(%rip), %r12
.Ltmp10:
	.p2align	4, 0x90
.LBB0_1:                                # =>This Loop Header: Depth=1
                                        #     Child Loop BB0_2 Depth 2
	xorl	%ebx, %ebx
.Ltmp11:
	#DEBUG_VALUE: j <- 0
	#DEBUG_VALUE: i <- $r13
	.p2align	4, 0x90
.LBB0_2:                                #   Parent Loop BB0_1 Depth=1
                                        # =>  This Inner Loop Header: Depth=2
	#DEBUG_VALUE: i <- $r13
	#DEBUG_VALUE: j <- $rbx
	.loc	1 38 29 prologue_end            # test2-kec.cpp:38:29
	callq	drand48@PLT
.Ltmp12:
	.loc	1 0 29 is_stmt 0                # test2-kec.cpp:0:29
	movsd	.LCPI0_0(%rip), %xmm1           # xmm1 = mem[0],zero
	.loc	1 38 28                         # test2-kec.cpp:38:28
	mulsd	%xmm1, %xmm0
	movsd	.LCPI0_1(%rip), %xmm1           # xmm1 = mem[0],zero
	.loc	1 38 39                         # test2-kec.cpp:38:39
	addsd	%xmm1, %xmm0
	.loc	1 38 27                         # test2-kec.cpp:38:27
	cvtsd2ss	%xmm0, %xmm0
	movss	%xmm0, 12(%rsp)                 # 4-byte Spill
	.loc	1 38 17                         # test2-kec.cpp:38:17
	movq	%r14, %rdi
	movq	%r13, %rsi
	callq	_ZN6MatrixixEm
.Ltmp13:
	.loc	1 0 17                          # test2-kec.cpp:0:17
	movss	12(%rsp), %xmm0                 # 4-byte Reload
                                        # xmm0 = mem[0],zero,zero,zero
	.loc	1 38 25                         # test2-kec.cpp:38:25
	movss	%xmm0, (%rax,%rbx,4)
	.loc	1 39 29 is_stmt 1               # test2-kec.cpp:39:29
	callq	drand48@PLT
.Ltmp14:
	.loc	1 39 28 is_stmt 0               # test2-kec.cpp:39:28
	mulsd	.LCPI0_0(%rip), %xmm0
	.loc	1 39 39                         # test2-kec.cpp:39:39
	addsd	.LCPI0_1(%rip), %xmm0
	.loc	1 39 27                         # test2-kec.cpp:39:27
	cvtsd2ss	%xmm0, %xmm0
	movss	%xmm0, 12(%rsp)                 # 4-byte Spill
	.loc	1 39 17                         # test2-kec.cpp:39:17
	movq	%r15, %rdi
	movq	%r13, %rsi
	callq	_ZN6MatrixixEm
.Ltmp15:
	.loc	1 0 17                          # test2-kec.cpp:0:17
	movss	12(%rsp), %xmm0                 # 4-byte Reload
                                        # xmm0 = mem[0],zero,zero,zero
	.loc	1 39 25                         # test2-kec.cpp:39:25
	movss	%xmm0, (%rax,%rbx,4)
	.loc	1 40 17 is_stmt 1               # test2-kec.cpp:40:17
	movq	%r12, %rdi
	movq	%r13, %rsi
	callq	_ZN6MatrixixEm
.Ltmp16:
	.loc	1 40 25 is_stmt 0               # test2-kec.cpp:40:25
	movl	$0, (%rax,%rbx,4)
.Ltmp17:
	.loc	1 37 48 is_stmt 1               # test2-kec.cpp:37:48
	addq	$1, %rbx
.Ltmp18:
	#DEBUG_VALUE: j <- $rbx
	.loc	1 37 39 is_stmt 0               # test2-kec.cpp:37:39
	cmpq	$1024, %rbx                     # imm = 0x400
.Ltmp19:
	.loc	1 37 13                         # test2-kec.cpp:37:13
	jne	.LBB0_2
.Ltmp20:
# %bb.3:                                #   in Loop: Header=BB0_1 Depth=1
	#DEBUG_VALUE: i <- $r13
	.loc	1 36 44 is_stmt 1               # test2-kec.cpp:36:44
	addq	$1, %r13
.Ltmp21:
	#DEBUG_VALUE: i <- $r13
	.loc	1 36 35 is_stmt 0               # test2-kec.cpp:36:35
	cmpq	$1024, %r13                     # imm = 0x400
.Ltmp22:
	.loc	1 36 9                          # test2-kec.cpp:36:9
	jne	.LBB0_1
.Ltmp23:
# %bb.4:
	.loc	1 0 9                           # test2-kec.cpp:0:9
	xorl	%r13d, %r13d
	leaq	32(%rsp), %rsi
	.loc	1 47 9 is_stmt 1                # test2-kec.cpp:47:9
	xorl	%edi, %edi
	callq	clock_gettime@PLT
.Ltmp24:
	.loc	1 0 9 is_stmt 0                 # test2-kec.cpp:0:9
	leaq	_ZZ4mainE1a(%rip), %r14
	leaq	_ZZ4mainE1b(%rip), %r15
	leaq	_ZZ4mainE1c(%rip), %r12
.Ltmp25:
	#DEBUG_VALUE: k <- 0
	.p2align	4, 0x90
.LBB0_5:                                # =>This Loop Header: Depth=1
                                        #     Child Loop BB0_6 Depth 2
                                        #       Child Loop BB0_7 Depth 3
	xorl	%ebx, %ebx
.Ltmp26:
	#DEBUG_VALUE: i <- 0
	#DEBUG_VALUE: k <- $r13
	.p2align	4, 0x90
.LBB0_6:                                #   Parent Loop BB0_5 Depth=1
                                        # =>  This Loop Header: Depth=2
                                        #       Child Loop BB0_7 Depth 3
	#DEBUG_VALUE: k <- $r13
	xorl	%ebp, %ebp
.Ltmp27:
	#DEBUG_VALUE: j <- 0
	#DEBUG_VALUE: i <- $rbx
	.p2align	4, 0x90
.LBB0_7:                                #   Parent Loop BB0_5 Depth=1
                                        #     Parent Loop BB0_6 Depth=2
                                        # =>    This Inner Loop Header: Depth=3
	#DEBUG_VALUE: k <- $r13
	#DEBUG_VALUE: i <- $rbx
	#DEBUG_VALUE: j <- $rbp
	.loc	1 51 32 is_stmt 1               # test2-kec.cpp:51:32
	movq	%r14, %rdi
	movq	%rbx, %rsi
	callq	_ZN6MatrixixEm
.Ltmp28:
	movss	(%rax,%r13,4), %xmm0            # xmm0 = mem[0],zero,zero,zero
	movss	%xmm0, 12(%rsp)                 # 4-byte Spill
	.loc	1 51 40 is_stmt 0               # test2-kec.cpp:51:40
	movq	%r15, %rdi
	movq	%r13, %rsi
	callq	_ZN6MatrixixEm
.Ltmp29:
	.loc	1 0 40                          # test2-kec.cpp:0:40
	movss	12(%rsp), %xmm0                 # 4-byte Reload
                                        # xmm0 = mem[0],zero,zero,zero
	.loc	1 51 39                         # test2-kec.cpp:51:39
	mulss	(%rax,%rbp,4), %xmm0
	movss	%xmm0, 12(%rsp)                 # 4-byte Spill
	.loc	1 51 21                         # test2-kec.cpp:51:21
	movq	%r12, %rdi
	movq	%rbx, %rsi
	callq	_ZN6MatrixixEm
.Ltmp30:
	.loc	1 0 21                          # test2-kec.cpp:0:21
	movss	12(%rsp), %xmm0                 # 4-byte Reload
                                        # xmm0 = mem[0],zero,zero,zero
	.loc	1 51 29                         # test2-kec.cpp:51:29
	addss	(%rax,%rbp,4), %xmm0
	movss	%xmm0, (%rax,%rbp,4)
.Ltmp31:
	.loc	1 50 43 is_stmt 1               # test2-kec.cpp:50:43
	addq	$1, %rbp
.Ltmp32:
	#DEBUG_VALUE: j <- $rbp
	.loc	1 50 34 is_stmt 0               # test2-kec.cpp:50:34
	cmpq	$1024, %rbp                     # imm = 0x400
.Ltmp33:
	.loc	1 50 17                         # test2-kec.cpp:50:17
	jne	.LBB0_7
.Ltmp34:
# %bb.8:                                #   in Loop: Header=BB0_6 Depth=2
	#DEBUG_VALUE: k <- $r13
	#DEBUG_VALUE: i <- $rbx
	.loc	1 49 39 is_stmt 1               # test2-kec.cpp:49:39
	addq	$1, %rbx
.Ltmp35:
	#DEBUG_VALUE: i <- $rbx
	.loc	1 49 30 is_stmt 0               # test2-kec.cpp:49:30
	cmpq	$1024, %rbx                     # imm = 0x400
.Ltmp36:
	.loc	1 49 13                         # test2-kec.cpp:49:13
	jne	.LBB0_6
.Ltmp37:
# %bb.9:                                #   in Loop: Header=BB0_5 Depth=1
	#DEBUG_VALUE: k <- $r13
	.loc	1 48 35 is_stmt 1               # test2-kec.cpp:48:35
	addq	$1, %r13
.Ltmp38:
	#DEBUG_VALUE: k <- $r13
	.loc	1 48 26 is_stmt 0               # test2-kec.cpp:48:26
	cmpq	$1024, %r13                     # imm = 0x400
.Ltmp39:
	.loc	1 48 9                          # test2-kec.cpp:48:9
	jne	.LBB0_5
.Ltmp40:
# %bb.10:
	.loc	1 0 9                           # test2-kec.cpp:0:9
	leaq	16(%rsp), %rsi
	.loc	1 56 9 is_stmt 1                # test2-kec.cpp:56:9
	xorl	%edi, %edi
	callq	clock_gettime@PLT
.Ltmp41:
	.loc	1 57 23                         # test2-kec.cpp:57:23
	movq	16(%rsp), %rax
	.loc	1 57 30 is_stmt 0               # test2-kec.cpp:57:30
	subq	32(%rsp), %rax
	.loc	1 57 17                         # test2-kec.cpp:57:17
	xorps	%xmm0, %xmm0
	cvtsi2ss	%rax, %xmm0
	.loc	1 57 52                         # test2-kec.cpp:57:52
	movq	24(%rsp), %rax
	.loc	1 57 60                         # test2-kec.cpp:57:60
	subq	40(%rsp), %rax
	.loc	1 57 46                         # test2-kec.cpp:57:46
	cvtsi2ss	%rax, %xmm1
	.loc	1 57 76                         # test2-kec.cpp:57:76
	divss	.LCPI0_2(%rip), %xmm1
	.loc	1 57 45                         # test2-kec.cpp:57:45
	addss	%xmm0, %xmm1
.Ltmp42:
	#DEBUG_VALUE: dtime <- $xmm1
	.loc	1 58 28 is_stmt 1               # test2-kec.cpp:58:28
	xorps	%xmm0, %xmm0
	cvtss2sd	%xmm1, %xmm0
	.loc	1 58 9 is_stmt 0                # test2-kec.cpp:58:9
	leaq	.L.str(%rip), %rdi
	movb	$1, %al
	callq	printf@PLT
.Ltmp43:
	.loc	1 61 9 is_stmt 1                # test2-kec.cpp:61:9
	movb	_ZGVZ4mainE1a_0(%rip), %al
	testb	%al, %al
	je	.LBB0_11
.LBB0_14:
	.loc	1 62 9                          # test2-kec.cpp:62:9
	movb	_ZGVZ4mainE1b_0(%rip), %al
	testb	%al, %al
	je	.LBB0_15
.LBB0_18:
	.loc	1 63 9                          # test2-kec.cpp:63:9
	movb	_ZGVZ4mainE1c_0(%rip), %al
	testb	%al, %al
	je	.LBB0_19
.LBB0_22:
	.loc	1 0 9 is_stmt 0                 # test2-kec.cpp:0:9
	xorl	%r13d, %r13d
	leaq	_ZZ4mainE1a_0(%rip), %r14
	leaq	_ZZ4mainE1b_0(%rip), %r15
	leaq	_ZZ4mainE1c_0(%rip), %r12
	.p2align	4, 0x90
.LBB0_23:                               # =>This Loop Header: Depth=1
                                        #     Child Loop BB0_24 Depth 2
	xorl	%ebx, %ebx
.Ltmp44:
	#DEBUG_VALUE: j <- 0
	#DEBUG_VALUE: i <- $r13
	.p2align	4, 0x90
.LBB0_24:                               #   Parent Loop BB0_23 Depth=1
                                        # =>  This Inner Loop Header: Depth=2
	#DEBUG_VALUE: i <- $r13
	#DEBUG_VALUE: j <- $rbx
	.loc	1 67 29 is_stmt 1               # test2-kec.cpp:67:29
	callq	drand48@PLT
.Ltmp45:
	.loc	1 0 29 is_stmt 0                # test2-kec.cpp:0:29
	movsd	.LCPI0_0(%rip), %xmm1           # xmm1 = mem[0],zero
	.loc	1 67 28                         # test2-kec.cpp:67:28
	mulsd	%xmm1, %xmm0
	movsd	.LCPI0_1(%rip), %xmm1           # xmm1 = mem[0],zero
	.loc	1 67 39                         # test2-kec.cpp:67:39
	addsd	%xmm1, %xmm0
	.loc	1 67 27                         # test2-kec.cpp:67:27
	cvtsd2ss	%xmm0, %xmm0
	movss	%xmm0, 12(%rsp)                 # 4-byte Spill
	.loc	1 67 17                         # test2-kec.cpp:67:17
	movq	%r14, %rdi
	movq	%r13, %rsi
	callq	_ZN7Matrix2ixEm
.Ltmp46:
	.loc	1 0 17                          # test2-kec.cpp:0:17
	movss	12(%rsp), %xmm0                 # 4-byte Reload
                                        # xmm0 = mem[0],zero,zero,zero
	.loc	1 67 25                         # test2-kec.cpp:67:25
	movss	%xmm0, (%rax,%rbx,4)
	.loc	1 68 29 is_stmt 1               # test2-kec.cpp:68:29
	callq	drand48@PLT
.Ltmp47:
	.loc	1 68 28 is_stmt 0               # test2-kec.cpp:68:28
	mulsd	.LCPI0_0(%rip), %xmm0
	.loc	1 68 39                         # test2-kec.cpp:68:39
	addsd	.LCPI0_1(%rip), %xmm0
	.loc	1 68 27                         # test2-kec.cpp:68:27
	cvtsd2ss	%xmm0, %xmm0
	movss	%xmm0, 12(%rsp)                 # 4-byte Spill
	.loc	1 68 17                         # test2-kec.cpp:68:17
	movq	%r15, %rdi
	movq	%r13, %rsi
	callq	_ZN7Matrix2ixEm
.Ltmp48:
	.loc	1 0 17                          # test2-kec.cpp:0:17
	movss	12(%rsp), %xmm0                 # 4-byte Reload
                                        # xmm0 = mem[0],zero,zero,zero
	.loc	1 68 25                         # test2-kec.cpp:68:25
	movss	%xmm0, (%rax,%rbx,4)
	.loc	1 69 17 is_stmt 1               # test2-kec.cpp:69:17
	movq	%r12, %rdi
	movq	%r13, %rsi
	callq	_ZN7Matrix2ixEm
.Ltmp49:
	.loc	1 69 25 is_stmt 0               # test2-kec.cpp:69:25
	movl	$0, (%rax,%rbx,4)
.Ltmp50:
	.loc	1 66 48 is_stmt 1               # test2-kec.cpp:66:48
	addq	$1, %rbx
.Ltmp51:
	#DEBUG_VALUE: j <- $rbx
	.loc	1 66 39 is_stmt 0               # test2-kec.cpp:66:39
	cmpq	$1024, %rbx                     # imm = 0x400
.Ltmp52:
	.loc	1 66 13                         # test2-kec.cpp:66:13
	jne	.LBB0_24
.Ltmp53:
# %bb.25:                               #   in Loop: Header=BB0_23 Depth=1
	#DEBUG_VALUE: i <- $r13
	.loc	1 65 44 is_stmt 1               # test2-kec.cpp:65:44
	addq	$1, %r13
.Ltmp54:
	#DEBUG_VALUE: i <- $r13
	.loc	1 65 35 is_stmt 0               # test2-kec.cpp:65:35
	cmpq	$1024, %r13                     # imm = 0x400
.Ltmp55:
	.loc	1 65 9                          # test2-kec.cpp:65:9
	jne	.LBB0_23
.Ltmp56:
# %bb.26:
	.loc	1 0 9                           # test2-kec.cpp:0:9
	xorl	%r13d, %r13d
	leaq	32(%rsp), %rsi
	.loc	1 76 9 is_stmt 1                # test2-kec.cpp:76:9
	xorl	%edi, %edi
	callq	clock_gettime@PLT
.Ltmp57:
	.loc	1 0 9 is_stmt 0                 # test2-kec.cpp:0:9
	leaq	_ZZ4mainE1a_0(%rip), %r14
	leaq	_ZZ4mainE1b_0(%rip), %r15
	leaq	_ZZ4mainE1c_0(%rip), %r12
.Ltmp58:
	#DEBUG_VALUE: k <- 0
	.p2align	4, 0x90
.LBB0_27:                               # =>This Loop Header: Depth=1
                                        #     Child Loop BB0_28 Depth 2
                                        #       Child Loop BB0_29 Depth 3
	xorl	%ebx, %ebx
.Ltmp59:
	#DEBUG_VALUE: i <- 0
	#DEBUG_VALUE: k <- $r13
	.p2align	4, 0x90
.LBB0_28:                               #   Parent Loop BB0_27 Depth=1
                                        # =>  This Loop Header: Depth=2
                                        #       Child Loop BB0_29 Depth 3
	#DEBUG_VALUE: k <- $r13
	xorl	%ebp, %ebp
.Ltmp60:
	#DEBUG_VALUE: j <- 0
	#DEBUG_VALUE: i <- $rbx
	.p2align	4, 0x90
.LBB0_29:                               #   Parent Loop BB0_27 Depth=1
                                        #     Parent Loop BB0_28 Depth=2
                                        # =>    This Inner Loop Header: Depth=3
	#DEBUG_VALUE: k <- $r13
	#DEBUG_VALUE: i <- $rbx
	#DEBUG_VALUE: j <- $rbp
	.loc	1 80 32 is_stmt 1               # test2-kec.cpp:80:32
	movq	%r14, %rdi
	movq	%rbx, %rsi
	callq	_ZN7Matrix2ixEm
.Ltmp61:
	movss	(%rax,%r13,4), %xmm0            # xmm0 = mem[0],zero,zero,zero
	movss	%xmm0, 12(%rsp)                 # 4-byte Spill
	.loc	1 80 40 is_stmt 0               # test2-kec.cpp:80:40
	movq	%r15, %rdi
	movq	%r13, %rsi
	callq	_ZN7Matrix2ixEm
.Ltmp62:
	.loc	1 0 40                          # test2-kec.cpp:0:40
	movss	12(%rsp), %xmm0                 # 4-byte Reload
                                        # xmm0 = mem[0],zero,zero,zero
	.loc	1 80 39                         # test2-kec.cpp:80:39
	mulss	(%rax,%rbp,4), %xmm0
	movss	%xmm0, 12(%rsp)                 # 4-byte Spill
	.loc	1 80 21                         # test2-kec.cpp:80:21
	movq	%r12, %rdi
	movq	%rbx, %rsi
	callq	_ZN7Matrix2ixEm
.Ltmp63:
	.loc	1 0 21                          # test2-kec.cpp:0:21
	movss	12(%rsp), %xmm0                 # 4-byte Reload
                                        # xmm0 = mem[0],zero,zero,zero
	.loc	1 80 29                         # test2-kec.cpp:80:29
	addss	(%rax,%rbp,4), %xmm0
	movss	%xmm0, (%rax,%rbp,4)
.Ltmp64:
	.loc	1 79 43 is_stmt 1               # test2-kec.cpp:79:43
	addq	$1, %rbp
.Ltmp65:
	#DEBUG_VALUE: j <- $rbp
	.loc	1 79 34 is_stmt 0               # test2-kec.cpp:79:34
	cmpq	$1024, %rbp                     # imm = 0x400
.Ltmp66:
	.loc	1 79 17                         # test2-kec.cpp:79:17
	jne	.LBB0_29
.Ltmp67:
# %bb.30:                               #   in Loop: Header=BB0_28 Depth=2
	#DEBUG_VALUE: k <- $r13
	#DEBUG_VALUE: i <- $rbx
	.loc	1 78 39 is_stmt 1               # test2-kec.cpp:78:39
	addq	$1, %rbx
.Ltmp68:
	#DEBUG_VALUE: i <- $rbx
	.loc	1 78 30 is_stmt 0               # test2-kec.cpp:78:30
	cmpq	$1024, %rbx                     # imm = 0x400
.Ltmp69:
	.loc	1 78 13                         # test2-kec.cpp:78:13
	jne	.LBB0_28
.Ltmp70:
# %bb.31:                               #   in Loop: Header=BB0_27 Depth=1
	#DEBUG_VALUE: k <- $r13
	.loc	1 77 35 is_stmt 1               # test2-kec.cpp:77:35
	addq	$1, %r13
.Ltmp71:
	#DEBUG_VALUE: k <- $r13
	.loc	1 77 26 is_stmt 0               # test2-kec.cpp:77:26
	cmpq	$1024, %r13                     # imm = 0x400
.Ltmp72:
	.loc	1 77 9                          # test2-kec.cpp:77:9
	jne	.LBB0_27
.Ltmp73:
# %bb.32:
	.loc	1 0 9                           # test2-kec.cpp:0:9
	leaq	16(%rsp), %rsi
	.loc	1 85 9 is_stmt 1                # test2-kec.cpp:85:9
	xorl	%edi, %edi
	callq	clock_gettime@PLT
.Ltmp74:
	.loc	1 86 23                         # test2-kec.cpp:86:23
	movq	16(%rsp), %rax
	.loc	1 86 30 is_stmt 0               # test2-kec.cpp:86:30
	subq	32(%rsp), %rax
	.loc	1 86 17                         # test2-kec.cpp:86:17
	xorps	%xmm0, %xmm0
	cvtsi2ss	%rax, %xmm0
	.loc	1 86 52                         # test2-kec.cpp:86:52
	movq	24(%rsp), %rax
	.loc	1 86 60                         # test2-kec.cpp:86:60
	subq	40(%rsp), %rax
	.loc	1 86 46                         # test2-kec.cpp:86:46
	cvtsi2ss	%rax, %xmm1
	.loc	1 86 76                         # test2-kec.cpp:86:76
	divss	.LCPI0_2(%rip), %xmm1
	.loc	1 86 45                         # test2-kec.cpp:86:45
	addss	%xmm0, %xmm1
.Ltmp75:
	#DEBUG_VALUE: dtime <- $xmm1
	.loc	1 87 28 is_stmt 1               # test2-kec.cpp:87:28
	xorps	%xmm0, %xmm0
	cvtss2sd	%xmm1, %xmm0
	.loc	1 87 9 is_stmt 0                # test2-kec.cpp:87:9
	leaq	.L.str(%rip), %rdi
	movb	$1, %al
	callq	printf@PLT
.Ltmp76:
	.loc	1 0 9                           # test2-kec.cpp:0:9
	movq	%fs:40, %rax
	cmpq	48(%rsp), %rax
	jne	.LBB0_38
.Ltmp77:
# %bb.33:
	.loc	1 89 1 is_stmt 1                # test2-kec.cpp:89:1
	xorl	%eax, %eax
	addq	$56, %rsp
	.cfi_def_cfa_offset 56
	popq	%rbx
	.cfi_def_cfa_offset 48
	popq	%r12
	.cfi_def_cfa_offset 40
	popq	%r13
	.cfi_def_cfa_offset 32
	popq	%r14
	.cfi_def_cfa_offset 24
	popq	%r15
	.cfi_def_cfa_offset 16
	popq	%rbp
	.cfi_def_cfa_offset 8
	retq
.LBB0_11:
	.cfi_def_cfa_offset 112
.Ltmp78:
	.loc	1 61 9                          # test2-kec.cpp:61:9
	leaq	_ZGVZ4mainE1a_0(%rip), %rbx
	movq	%rbx, %rdi
	callq	__cxa_guard_acquire@PLT
.Ltmp79:
	testl	%eax, %eax
	je	.LBB0_14
# %bb.12:
.Ltmp0:
	.loc	1 61 24 is_stmt 0               # test2-kec.cpp:61:24
	leaq	_ZZ4mainE1a_0(%rip), %rdi
	callq	_ZN7Matrix2C2Ev
.Ltmp80:
.Ltmp1:
# %bb.13:
	.loc	1 61 9                          # test2-kec.cpp:61:9
	leaq	_ZN7Matrix2D2Ev(%rip), %rdi
	leaq	_ZZ4mainE1a_0(%rip), %rsi
	leaq	__dso_handle(%rip), %rdx
	callq	__cxa_atexit@PLT
.Ltmp81:
	leaq	_ZGVZ4mainE1a_0(%rip), %rdi
	callq	__cxa_guard_release@PLT
.Ltmp82:
	.loc	1 0 9                           # test2-kec.cpp:0:9
	jmp	.LBB0_14
.LBB0_15:
	.loc	1 62 9 is_stmt 1                # test2-kec.cpp:62:9
	leaq	_ZGVZ4mainE1b_0(%rip), %rbx
	movq	%rbx, %rdi
	callq	__cxa_guard_acquire@PLT
.Ltmp83:
	testl	%eax, %eax
	je	.LBB0_18
# %bb.16:
.Ltmp3:
	.loc	1 62 24 is_stmt 0               # test2-kec.cpp:62:24
	leaq	_ZZ4mainE1b_0(%rip), %rdi
	callq	_ZN7Matrix2C2Ev
.Ltmp84:
.Ltmp4:
# %bb.17:
	.loc	1 62 9                          # test2-kec.cpp:62:9
	leaq	_ZN7Matrix2D2Ev(%rip), %rdi
	leaq	_ZZ4mainE1b_0(%rip), %rsi
	leaq	__dso_handle(%rip), %rdx
	callq	__cxa_atexit@PLT
.Ltmp85:
	leaq	_ZGVZ4mainE1b_0(%rip), %rdi
	callq	__cxa_guard_release@PLT
.Ltmp86:
	.loc	1 0 9                           # test2-kec.cpp:0:9
	jmp	.LBB0_18
.LBB0_19:
	.loc	1 63 9 is_stmt 1                # test2-kec.cpp:63:9
	leaq	_ZGVZ4mainE1c_0(%rip), %rbx
	movq	%rbx, %rdi
	callq	__cxa_guard_acquire@PLT
.Ltmp87:
	testl	%eax, %eax
	je	.LBB0_22
# %bb.20:
.Ltmp6:
	.loc	1 63 24 is_stmt 0               # test2-kec.cpp:63:24
	leaq	_ZZ4mainE1c_0(%rip), %rdi
	callq	_ZN7Matrix2C2Ev
.Ltmp88:
.Ltmp7:
# %bb.21:
	.loc	1 63 9                          # test2-kec.cpp:63:9
	leaq	_ZN7Matrix2D2Ev(%rip), %rdi
	leaq	_ZZ4mainE1c_0(%rip), %rsi
	leaq	__dso_handle(%rip), %rdx
	callq	__cxa_atexit@PLT
.Ltmp89:
	leaq	_ZGVZ4mainE1c_0(%rip), %rdi
	callq	__cxa_guard_release@PLT
.Ltmp90:
	.loc	1 0 9                           # test2-kec.cpp:0:9
	jmp	.LBB0_22
.Ltmp91:
.LBB0_38:
	callq	__stack_chk_fail@PLT
.Ltmp92:
.LBB0_35:
.Ltmp8:
	jmp	.LBB0_37
.LBB0_34:
.Ltmp5:
	jmp	.LBB0_37
.LBB0_36:
.Ltmp2:
.LBB0_37:
	movq	%rax, %r14
.Ltmp93:
	movq	%rbx, %rdi
	callq	__cxa_guard_abort@PLT
.Ltmp94:
	movq	%r14, %rdi
	callq	_Unwind_Resume@PLT
.Ltmp95:
.Lfunc_end0:
	.size	main, .Lfunc_end0-main
	.cfi_endproc
	.file	10 "/usr/include" "time.h"
	.file	11 "/usr/include/bits" "types.h"
	.file	12 "/usr/include/bits/types" "struct_timespec.h"
	.section	.gcc_except_table,"a",@progbits
	.p2align	2
GCC_except_table0:
.Lexception0:
	.byte	255                             # @LPStart Encoding = omit
	.byte	255                             # @TType Encoding = omit
	.byte	1                               # Call site Encoding = uleb128
	.uleb128 .Lcst_end0-.Lcst_begin0
.Lcst_begin0:
	.uleb128 .Ltmp0-.Lfunc_begin0           # >> Call Site 1 <<
	.uleb128 .Ltmp1-.Ltmp0                  #   Call between .Ltmp0 and .Ltmp1
	.uleb128 .Ltmp2-.Lfunc_begin0           #     jumps to .Ltmp2
	.byte	0                               #   On action: cleanup
	.uleb128 .Ltmp3-.Lfunc_begin0           # >> Call Site 2 <<
	.uleb128 .Ltmp4-.Ltmp3                  #   Call between .Ltmp3 and .Ltmp4
	.uleb128 .Ltmp5-.Lfunc_begin0           #     jumps to .Ltmp5
	.byte	0                               #   On action: cleanup
	.uleb128 .Ltmp6-.Lfunc_begin0           # >> Call Site 3 <<
	.uleb128 .Ltmp7-.Ltmp6                  #   Call between .Ltmp6 and .Ltmp7
	.uleb128 .Ltmp8-.Lfunc_begin0           #     jumps to .Ltmp8
	.byte	0                               #   On action: cleanup
	.uleb128 .Ltmp7-.Lfunc_begin0           # >> Call Site 4 <<
	.uleb128 .Lfunc_end0-.Ltmp7             #   Call between .Ltmp7 and .Lfunc_end0
	.byte	0                               #     has no landing pad
	.byte	0                               #   On action: cleanup
.Lcst_end0:
	.p2align	2
                                        # -- End function
	.section	.text._ZN6MatrixixEm,"axG",@progbits,_ZN6MatrixixEm,comdat
	.weak	_ZN6MatrixixEm                  # -- Begin function _ZN6MatrixixEm
	.p2align	4, 0x90
	.type	_ZN6MatrixixEm,@function
_ZN6MatrixixEm:                         # @_ZN6MatrixixEm
.Lfunc_begin1:
	.loc	1 14 0 is_stmt 1                # test2-kec.cpp:14:0
	.cfi_startproc
# %bb.0:
	#DEBUG_VALUE: operator[]:this <- $rdi
	#DEBUG_VALUE: operator[]:this <- $rdi
	#DEBUG_VALUE: operator[]:i <- $rsi
	#DEBUG_VALUE: operator[]:i <- $rsi
	.loc	1 14 51 prologue_end            # test2-kec.cpp:14:51
	shlq	$12, %rsi
.Ltmp96:
	#DEBUG_VALUE: operator[]:i <- [DW_OP_LLVM_entry_value 1] $rsi
	leaq	(%rsi,%rdi), %rax
	.loc	1 14 44 is_stmt 0               # test2-kec.cpp:14:44
	retq
.Ltmp97:
.Lfunc_end1:
	.size	_ZN6MatrixixEm, .Lfunc_end1-_ZN6MatrixixEm
	.cfi_endproc
                                        # -- End function
	.section	.text._ZN7Matrix2C2Ev,"axG",@progbits,_ZN7Matrix2C2Ev,comdat
	.weak	_ZN7Matrix2C2Ev                 # -- Begin function _ZN7Matrix2C2Ev
	.p2align	4, 0x90
	.type	_ZN7Matrix2C2Ev,@function
_ZN7Matrix2C2Ev:                        # @_ZN7Matrix2C2Ev
.Lfunc_begin2:
	.loc	1 21 0 is_stmt 1                # test2-kec.cpp:21:0
	.cfi_startproc
# %bb.0:
	#DEBUG_VALUE: Matrix2:this <- $rdi
	pushq	%rbx
	.cfi_def_cfa_offset 16
	.cfi_offset %rbx, -16
	movq	%rdi, %rbx
.Ltmp98:
	#DEBUG_VALUE: Matrix2:this <- $rbx
	.loc	1 21 26 prologue_end            # test2-kec.cpp:21:26
	movl	$4194304, %edi                  # imm = 0x400000
	callq	_Znam@PLT
.Ltmp99:
	.loc	1 21 21 is_stmt 0               # test2-kec.cpp:21:21
	movq	%rax, (%rbx)
	.loc	1 21 49                         # test2-kec.cpp:21:49
	popq	%rbx
.Ltmp100:
	#DEBUG_VALUE: Matrix2:this <- [DW_OP_LLVM_entry_value 1] $rdi
	.cfi_def_cfa_offset 8
	retq
.Ltmp101:
.Lfunc_end2:
	.size	_ZN7Matrix2C2Ev, .Lfunc_end2-_ZN7Matrix2C2Ev
	.cfi_endproc
                                        # -- End function
	.section	.text._ZN7Matrix2D2Ev,"axG",@progbits,_ZN7Matrix2D2Ev,comdat
	.weak	_ZN7Matrix2D2Ev                 # -- Begin function _ZN7Matrix2D2Ev
	.p2align	4, 0x90
	.type	_ZN7Matrix2D2Ev,@function
_ZN7Matrix2D2Ev:                        # @_ZN7Matrix2D2Ev
.Lfunc_begin3:
	.loc	1 22 0 is_stmt 1                # test2-kec.cpp:22:0
	.cfi_startproc
# %bb.0:
	#DEBUG_VALUE: ~Matrix2:this <- $rdi
	#DEBUG_VALUE: ~Matrix2:this <- $rdi
	pushq	%rax
	.cfi_def_cfa_offset 16
.Ltmp102:
	.loc	1 22 32 prologue_end            # test2-kec.cpp:22:32
	movq	(%rdi), %rdi
.Ltmp103:
	#DEBUG_VALUE: ~Matrix2:this <- [DW_OP_LLVM_entry_value 1] $rdi
	.loc	1 22 22 is_stmt 0               # test2-kec.cpp:22:22
	testq	%rdi, %rdi
	je	.LBB3_2
.Ltmp104:
# %bb.1:
	#DEBUG_VALUE: ~Matrix2:this <- [DW_OP_LLVM_entry_value 1] $rdi
	callq	_ZdaPv@PLT
.Ltmp105:
.LBB3_2:
	#DEBUG_VALUE: ~Matrix2:this <- [DW_OP_LLVM_entry_value 1] $rdi
	.loc	1 22 38                         # test2-kec.cpp:22:38
	popq	%rax
	.cfi_def_cfa_offset 8
	retq
.Ltmp106:
.Lfunc_end3:
	.size	_ZN7Matrix2D2Ev, .Lfunc_end3-_ZN7Matrix2D2Ev
	.cfi_endproc
                                        # -- End function
	.section	.text._ZN7Matrix2ixEm,"axG",@progbits,_ZN7Matrix2ixEm,comdat
	.weak	_ZN7Matrix2ixEm                 # -- Begin function _ZN7Matrix2ixEm
	.p2align	4, 0x90
	.type	_ZN7Matrix2ixEm,@function
_ZN7Matrix2ixEm:                        # @_ZN7Matrix2ixEm
.Lfunc_begin4:
	.loc	1 23 0 is_stmt 1                # test2-kec.cpp:23:0
	.cfi_startproc
# %bb.0:
	#DEBUG_VALUE: operator[]:this <- $rdi
	#DEBUG_VALUE: operator[]:i <- $rsi
	movq	%rsi, %rax
.Ltmp107:
	#DEBUG_VALUE: operator[]:i <- $rax
	#DEBUG_VALUE: operator[]:this <- $rdi
	.loc	1 23 52 prologue_end            # test2-kec.cpp:23:52
	shlq	$12, %rax
.Ltmp108:
	addq	(%rdi), %rax
	.loc	1 23 44 is_stmt 0               # test2-kec.cpp:23:44
	retq
.Ltmp109:
.Lfunc_end4:
	.size	_ZN7Matrix2ixEm, .Lfunc_end4-_ZN7Matrix2ixEm
	.cfi_endproc
                                        # -- End function
	.type	_ZZ4mainE1a,@object             # @_ZZ4mainE1a
	.local	_ZZ4mainE1a
	.comm	_ZZ4mainE1a,4194304,4
	.type	_ZZ4mainE1b,@object             # @_ZZ4mainE1b
	.local	_ZZ4mainE1b
	.comm	_ZZ4mainE1b,4194304,4
	.type	_ZZ4mainE1c,@object             # @_ZZ4mainE1c
	.local	_ZZ4mainE1c
	.comm	_ZZ4mainE1c,4194304,4
	.type	.L.str,@object                  # @.str
	.section	.rodata.str1.1,"aMS",@progbits,1
.L.str:
	.asciz	"%f sec\n"
	.size	.L.str, 8

	.type	_ZZ4mainE1a_0,@object           # @_ZZ4mainE1a_0
	.local	_ZZ4mainE1a_0
	.comm	_ZZ4mainE1a_0,8,8
	.type	_ZGVZ4mainE1a_0,@object         # @_ZGVZ4mainE1a_0
	.local	_ZGVZ4mainE1a_0
	.comm	_ZGVZ4mainE1a_0,8,8
	.hidden	__dso_handle
	.type	_ZZ4mainE1b_0,@object           # @_ZZ4mainE1b_0
	.local	_ZZ4mainE1b_0
	.comm	_ZZ4mainE1b_0,8,8
	.type	_ZGVZ4mainE1b_0,@object         # @_ZGVZ4mainE1b_0
	.local	_ZGVZ4mainE1b_0
	.comm	_ZGVZ4mainE1b_0,8,8
	.type	_ZZ4mainE1c_0,@object           # @_ZZ4mainE1c_0
	.local	_ZZ4mainE1c_0
	.comm	_ZZ4mainE1c_0,8,8
	.type	_ZGVZ4mainE1c_0,@object         # @_ZGVZ4mainE1c_0
	.local	_ZGVZ4mainE1c_0
	.comm	_ZGVZ4mainE1c_0,8,8
	.section	.data.DW.ref.__gxx_personality_v0,"aGw",@progbits,DW.ref.__gxx_personality_v0,comdat
	.p2align	3
	.type	DW.ref.__gxx_personality_v0,@object
	.size	DW.ref.__gxx_personality_v0, 8
DW.ref.__gxx_personality_v0:
	.quad	__gxx_personality_v0
	.ident	"clang version 11.0.0"
	.section	".note.GNU-stack","",@progbits
	.addrsig
	.addrsig_sym __gxx_personality_v0
	.addrsig_sym _Unwind_Resume
	.addrsig_sym __stack_chk_fail
	.addrsig_sym _ZZ4mainE1a
	.addrsig_sym _ZZ4mainE1b
	.addrsig_sym _ZZ4mainE1c
	.addrsig_sym _ZZ4mainE1a_0
	.addrsig_sym _ZGVZ4mainE1a_0
	.addrsig_sym __dso_handle
	.addrsig_sym _ZZ4mainE1b_0
	.addrsig_sym _ZGVZ4mainE1b_0
	.addrsig_sym _ZZ4mainE1c_0
	.addrsig_sym _ZGVZ4mainE1c_0